Certificate:
    Data:
        Version: 3 (0x2)
        Serial Number: 1 (0x1)
        Signature Algorithm: sha256WithRSAEncryption
        Issuer: C=US, ST=Florida, L=Palm Beach Gardens, O=ZeroC, Inc., OU=Ice, CN=ZeroC Test CA (Objective-C)/emailAddress=info@zeroc.com
        Validity
            Not Before: Oct 19 17:09:07 2011 GMT
            Not After : Oct 17 17:09:07 2016 GMT
        Subject: C=US, ST=Florida, O=ZeroC, Inc., OU=Ice/emailAddress=info@zeroc.com, CN=Server
        Subject Public Key Info:
            Public Key Algorithm: rsaEncryption
                Public-Key: (1024 bit)
                Modulus:
                    00:cf:07:41:7e:24:f3:4e:29:10:ee:e2:96:ff:73:
                    0d:8c:ba:5a:06:a4:62:2d:63:f6:20:94:f4:92:06:
                    57:30:0f:50:89:f8:41:ce:a0:97:90:51:01:2e:63:
                    e8:67:74:68:49:1e:9a:cb:e4:c1:f5:e7:d2:b6:18:
                    cb:2f:08:4d:bb:c9:a4:74:f1:18:0c:f9:b2:35:bc:
                    c9:b6:a0:84:42:33:4c:5c:e3:4b:fc:35:7d:d2:12:
                    c5:71:4e:96:a4:a5:bb:0f:91:9d:b4:79:c3:db:d9:
                    15:5d:c0:6a:3b:27:d7:66:00:79:59:32:30:f2:b8:
                    42:c8:9b:0e:fe:66:78:43:f9
                Exponent: 65537 (0x10001)
        X509v3 extensions:
            X509v3 Basic Constraints: 
                CA:FALSE
            X509v3 Subject Key Identifier: 
                25:9D:03:60:D5:6D:46:3C:32:EE:FE:54:48:7A:76:68:FF:6A:87:1D
            X509v3 Authority Key Identifier: 
                keyid:53:ED:A1:DD:4F:4E:C5:3F:9A:7A:D2:EF:D7:BF:FC:93:E4:A0:51:32
                DirName:/C=US/ST=Florida/L=Palm Beach Gardens/O=ZeroC, Inc./OU=Ice/CN=ZeroC Test CA (Objective-C)/emailAddress=info@zeroc.com
                serial:86:BD:0E:A2:D5:7F:29:8C

            X509v3 Subject Alternative Name: 
                DNS:server, IP Address:127.0.0.1
    Signature Algorithm: sha256WithRSAEncryption
        00:9e:b3:79:3d:70:c5:d7:ef:51:c0:e4:a0:10:59:98:30:5d:
        b7:cb:17:10:54:b6:6d:59:c3:d5:9f:93:b9:73:5e:23:e0:7c:
        1e:85:ce:ca:9a:ea:14:66:19:3b:7a:7f:80:1c:71:f8:0c:73:
        e4:10:9b:bf:3c:d7:59:4b:0f:eb:89:7a:f2:50:bf:42:fd:dd:
        d6:52:a0:4c:2f:61:f5:77:dc:32:4e:d6:4d:79:c6:16:11:21:
        47:aa:e1:a1:83:1b:f7:4a:28:75:31:81:66:45:a0:ae:4c:f1:
        32:d0:ce:b9:5a:af:b9:8f:35:cb:f4:e5:0f:02:28:77:a4:84:
        29:96
-----BEGIN CERTIFICATE-----
MIIDtTCCAx6gAwIBAgIBATANBgkqhkiG9w0BAQsFADCBpTELMAkGA1UEBhMCVVMx
EDAOBgNVBAgTB0Zsb3JpZGExGzAZBgNVBAcTElBhbG0gQmVhY2ggR2FyZGVuczEU
MBIGA1UEChMLWmVyb0MsIEluYy4xDDAKBgNVBAsTA0ljZTEkMCIGA1UEAxMbWmVy
b0MgVGVzdCBDQSAoT2JqZWN0aXZlLUMpMR0wGwYJKoZIhvcNAQkBFg5pbmZvQHpl
cm9jLmNvbTAeFw0xMTEwMTkxNzA5MDdaFw0xNjEwMTcxNzA5MDdaMHMxCzAJBgNV
BAYTAlVTMRAwDgYDVQQIEwdGbG9yaWRhMRQwEgYDVQQKEwtaZXJvQywgSW5jLjEM
MAoGA1UECxMDSWNlMR0wGwYJKoZIhvcNAQkBFg5pbmZvQHplcm9jLmNvbTEPMA0G
A1UEAxMGU2VydmVyMIGfMA0GCSqGSIb3DQEBAQUAA4GNADCBiQKBgQDPB0F+JPNO
KRDu4pb/cw2MuloGpGItY/YglPSSBlcwD1CJ+EHOoJeQUQEuY+hndGhJHprL5MH1
59K2GMsvCE27yaR08RgM+bI1vMm2oIRCM0xc40v8NX3SEsVxTpakpbsPkZ20ecPb
2RVdwGo7J9dmAHlZMjDyuELImw7+ZnhD+QIDAQABo4IBJDCCASAwCQYDVR0TBAIw
ADAdBgNVHQ4EFgQUJZ0DYNVtRjwy7v5USHp2aP9qhx0wgdoGA1UdIwSB0jCBz4AU
U+2h3U9OxT+aetLv17/8k+SgUTKhgaukgagwgaUxCzAJBgNVBAYTAlVTMRAwDgYD
VQQIEwdGbG9yaWRhMRswGQYDVQQHExJQYWxtIEJlYWNoIEdhcmRlbnMxFDASBgNV
BAoTC1plcm9DLCBJbmMuMQwwCgYDVQQLEwNJY2UxJDAiBgNVBAMTG1plcm9DIFRl
c3QgQ0EgKE9iamVjdGl2ZS1DKTEdMBsGCSqGSIb3DQEJARYOaW5mb0B6ZXJvYy5j
b22CCQCGvQ6i1X8pjDAXBgNVHREEEDAOggZzZXJ2ZXKHBH8AAAEwDQYJKoZIhvcN
AQELBQADgYEAAJ6zeT1wxdfvUcDkoBBZmDBdt8sXEFS2bVnD1Z+TuXNeI+B8HoXO
yprqFGYZO3p/gBxx+Axz5BCbvzzXWUsP64l68lC/Qv3d1lKgTC9h9XfcMk7WTXnG
FhEhR6rhoYMb90oodTGBZkWgrkzxMtDOuVqvuY81y/TlDwIod6SEKZY=
-----END CERTIFICATE-----
