Certificate:
    Data:
        Version: 3 (0x2)
        Serial Number: 2 (0x2)
        Signature Algorithm: sha256WithRSAEncryption
        Issuer: C=US, ST=Florida, L=Palm Beach Gardens, O=ZeroC, Inc., OU=Ice, CN=ZeroC Test CA (Objective-C)/emailAddress=info@zeroc.com
        Validity
            Not Before: Oct 19 17:09:08 2011 GMT
            Not After : Oct 17 17:09:08 2016 GMT
        Subject: C=US, ST=Florida, O=ZeroC, Inc., OU=Ice/emailAddress=info@zeroc.com, CN=Client
        Subject Public Key Info:
            Public Key Algorithm: rsaEncryption
                Public-Key: (1024 bit)
                Modulus:
                    00:aa:3d:c4:7a:62:f8:24:12:00:30:ae:8a:79:83:
                    f7:51:12:28:9a:df:38:b9:e4:c9:90:68:95:6c:f0:
                    b5:52:b5:cf:c5:bd:4b:7b:d4:f4:93:2c:a9:06:75:
                    0d:b7:cd:4e:17:62:29:81:ed:5e:95:01:c6:62:dd:
                    c0:d7:ea:6f:8e:75:d5:f8:df:36:6b:1f:b2:ca:c9:
                    be:19:71:ac:30:15:42:39:62:5a:9d:00:87:26:20:
                    63:27:f0:75:9a:24:5d:17:41:f3:b9:ad:d7:68:20:
                    c1:88:b9:9f:46:7a:2a:68:46:cb:4c:8c:21:0a:4a:
                    ee:40:4b:06:c0:d6:e2:ea:f9
                Exponent: 65537 (0x10001)
        X509v3 extensions:
            X509v3 Basic Constraints: 
                CA:FALSE
            X509v3 Subject Key Identifier: 
                87:6B:00:F7:73:1B:5E:5F:3A:C4:04:DE:1E:F4:35:BC:D7:0D:8B:EC
            X509v3 Authority Key Identifier: 
                keyid:53:ED:A1:DD:4F:4E:C5:3F:9A:7A:D2:EF:D7:BF:FC:93:E4:A0:51:32
                DirName:/C=US/ST=Florida/L=Palm Beach Gardens/O=ZeroC, Inc./OU=Ice/CN=ZeroC Test CA (Objective-C)/emailAddress=info@zeroc.com
                serial:86:BD:0E:A2:D5:7F:29:8C

            X509v3 Subject Alternative Name: 
                DNS:client, IP Address:127.0.0.1
    Signature Algorithm: sha256WithRSAEncryption
        63:a4:cd:10:b9:a3:fa:ec:83:8d:4a:17:25:01:61:ce:85:28:
        54:6c:e7:ab:10:05:cc:ee:4c:bf:19:3a:75:61:9a:30:32:b3:
        6d:2e:97:ec:6d:71:b2:45:86:5e:16:25:33:78:82:09:a1:7a:
        52:13:df:64:c7:fb:59:62:d5:f9:ee:52:82:13:09:26:fb:ee:
        f1:22:1b:2a:78:c0:7e:7a:ab:6d:b3:81:80:5f:58:94:d8:42:
        50:52:33:4e:41:2b:51:71:71:20:80:1d:0a:e2:02:68:99:61:
        19:8f:1f:f7:22:8b:9a:ab:2a:54:6a:07:d0:93:87:5b:27:d3:
        1c:3a
-----BEGIN CERTIFICATE-----
MIIDtTCCAx6gAwIBAgIBAjANBgkqhkiG9w0BAQsFADCBpTELMAkGA1UEBhMCVVMx
EDAOBgNVBAgTB0Zsb3JpZGExGzAZBgNVBAcTElBhbG0gQmVhY2ggR2FyZGVuczEU
MBIGA1UEChMLWmVyb0MsIEluYy4xDDAKBgNVBAsTA0ljZTEkMCIGA1UEAxMbWmVy
b0MgVGVzdCBDQSAoT2JqZWN0aXZlLUMpMR0wGwYJKoZIhvcNAQkBFg5pbmZvQHpl
cm9jLmNvbTAeFw0xMTEwMTkxNzA5MDhaFw0xNjEwMTcxNzA5MDhaMHMxCzAJBgNV
BAYTAlVTMRAwDgYDVQQIEwdGbG9yaWRhMRQwEgYDVQQKEwtaZXJvQywgSW5jLjEM
MAoGA1UECxMDSWNlMR0wGwYJKoZIhvcNAQkBFg5pbmZvQHplcm9jLmNvbTEPMA0G
A1UEAxMGQ2xpZW50MIGfMA0GCSqGSIb3DQEBAQUAA4GNADCBiQKBgQCqPcR6Yvgk
EgAwrop5g/dREiia3zi55MmQaJVs8LVStc/FvUt71PSTLKkGdQ23zU4XYimB7V6V
AcZi3cDX6m+OddX43zZrH7LKyb4ZcawwFUI5YlqdAIcmIGMn8HWaJF0XQfO5rddo
IMGIuZ9GeipoRstMjCEKSu5ASwbA1uLq+QIDAQABo4IBJDCCASAwCQYDVR0TBAIw
ADAdBgNVHQ4EFgQUh2sA93MbXl86xATeHvQ1vNcNi+wwgdoGA1UdIwSB0jCBz4AU
U+2h3U9OxT+aetLv17/8k+SgUTKhgaukgagwgaUxCzAJBgNVBAYTAlVTMRAwDgYD
VQQIEwdGbG9yaWRhMRswGQYDVQQHExJQYWxtIEJlYWNoIEdhcmRlbnMxFDASBgNV
BAoTC1plcm9DLCBJbmMuMQwwCgYDVQQLEwNJY2UxJDAiBgNVBAMTG1plcm9DIFRl
c3QgQ0EgKE9iamVjdGl2ZS1DKTEdMBsGCSqGSIb3DQEJARYOaW5mb0B6ZXJvYy5j
b22CCQCGvQ6i1X8pjDAXBgNVHREEEDAOggZjbGllbnSHBH8AAAEwDQYJKoZIhvcN
AQELBQADgYEAY6TNELmj+uyDjUoXJQFhzoUoVGznqxAFzO5Mvxk6dWGaMDKzbS6X
7G1xskWGXhYlM3iCCaF6UhPfZMf7WWLV+e5SghMJJvvu8SIbKnjAfnqrbbOBgF9Y
lNhCUFIzTkErUXFxIIAdCuICaJlhGY8f9yKLmqsqVGoH0JOHWyfTHDo=
-----END CERTIFICATE-----
